; ModuleID = 'source-C-CXX/41/170.cpp'
source_filename = "source-C-CXX/41/170.cpp"
target datalayout = "e-m:e-p270:32:32-p271:32:32-p272:64:64-i64:64-f80:128-n8:16:32:64-S128"
target triple = "x86_64-pc-linux-gnu"

%"class.std::ios_base::Init" = type { i8 }
%"class.std::basic_istream" = type { i32 (...)**, i64, %"class.std::basic_ios" }
%"class.std::basic_ios" = type { %"class.std::ios_base", %"class.std::basic_ostream"*, i8, i8, %"class.std::basic_streambuf"*, %"class.std::ctype"*, %"class.std::num_put"*, %"class.std::num_get"* }
%"class.std::ios_base" = type { i32 (...)**, i64, i64, i32, i32, i32, %"struct.std::ios_base::_Callback_list"*, %"struct.std::ios_base::_Words", [8 x %"struct.std::ios_base::_Words"], i32, %"struct.std::ios_base::_Words"*, %"class.std::locale" }
%"struct.std::ios_base::_Callback_list" = type { %"struct.std::ios_base::_Callback_list"*, void (i32, %"class.std::ios_base"*, i32)*, i32, i32 }
%"struct.std::ios_base::_Words" = type { i8*, i64 }
%"class.std::locale" = type { %"class.std::locale::_Impl"* }
%"class.std::locale::_Impl" = type { i32, %"class.std::locale::facet"**, i64, %"class.std::locale::facet"**, i8** }
%"class.std::locale::facet" = type <{ i32 (...)**, i32, [4 x i8] }>
%"class.std::basic_ostream" = type { i32 (...)**, %"class.std::basic_ios" }
%"class.std::basic_streambuf" = type { i32 (...)**, i8*, i8*, i8*, i8*, i8*, i8*, %"class.std::locale" }
%"class.std::ctype" = type <{ %"class.std::locale::facet.base", [4 x i8], %struct.__locale_struct*, i8, [7 x i8], i32*, i32*, i16*, i8, [256 x i8], [256 x i8], i8, [6 x i8] }>
%"class.std::locale::facet.base" = type <{ i32 (...)**, i32 }>
%struct.__locale_struct = type { [13 x %struct.__locale_data*], i16*, i32*, i32*, [13 x i8*] }
%struct.__locale_data = type opaque
%"class.std::num_put" = type { %"class.std::locale::facet.base", [4 x i8] }
%"class.std::num_get" = type { %"class.std::locale::facet.base", [4 x i8] }

@_ZStL8__ioinit = internal global %"class.std::ios_base::Init" zeroinitializer, align 1
@__dso_handle = external hidden global i8
@_ZSt3cin = external global %"class.std::basic_istream", align 8
@_ZSt4cout = external global %"class.std::basic_ostream", align 8
@.str = private unnamed_addr constant [2 x i8] c" \00", align 1
@llvm.global_ctors = appending global [1 x { i32, void ()*, i8* }] [{ i32, void ()*, i8* } { i32 65535, void ()* @_GLOBAL__sub_I_170.cpp, i8* null }]

declare void @_ZNSt8ios_base4InitC1Ev(%"class.std::ios_base::Init"* nonnull align 1 dereferenceable(1)) unnamed_addr #0

; Function Attrs: nounwind
declare void @_ZNSt8ios_base4InitD1Ev(%"class.std::ios_base::Init"* nonnull align 1 dereferenceable(1)) unnamed_addr #1

; Function Attrs: nofree nounwind
declare i32 @__cxa_atexit(void (i8*)*, i8*, i8*) local_unnamed_addr #2

; Function Attrs: mustprogress norecurse sspstrong uwtable
define dso_local i32 @main() local_unnamed_addr #3 {
  %1 = alloca i32, align 4
  %2 = alloca i32, align 4
  %3 = bitcast i32* %1 to i8*
  call void @llvm.lifetime.start.p0i8(i64 4, i8* nonnull %3) #7
  %4 = bitcast i32* %2 to i8*
  call void @llvm.lifetime.start.p0i8(i64 4, i8* nonnull %4) #7
  %5 = call nonnull align 8 dereferenceable(16) %"class.std::basic_istream"* @_ZNSirsERi(%"class.std::basic_istream"* nonnull align 8 dereferenceable(16) @_ZSt3cin, i32* nonnull align 4 dereferenceable(4) %1)
  %6 = load i32, i32* %1, align 4, !tbaa !5
  %7 = icmp ugt i32 %6, 100000
  br i1 %7, label %150, label %8

8:                                                ; preds = %0
  %9 = zext i32 %6 to i64
  %10 = call i8* @llvm.stacksave()
  %11 = alloca i32, i64 %9, align 16
  %12 = load i32, i32* %1, align 4, !tbaa !5
  %13 = icmp sgt i32 %12, 0
  br i1 %13, label %14, label %22

14:                                               ; preds = %8, %14
  %15 = phi i64 [ %18, %14 ], [ 0, %8 ]
  %16 = getelementptr inbounds i32, i32* %11, i64 %15
  %17 = call nonnull align 8 dereferenceable(16) %"class.std::basic_istream"* @_ZNSirsERi(%"class.std::basic_istream"* nonnull align 8 dereferenceable(16) @_ZSt3cin, i32* nonnull align 4 dereferenceable(4) %16)
  %18 = add nuw nsw i64 %15, 1
  %19 = load i32, i32* %1, align 4, !tbaa !5
  %20 = sext i32 %19 to i64
  %21 = icmp slt i64 %18, %20
  br i1 %21, label %14, label %22, !llvm.loop !9

22:                                               ; preds = %14, %8
  %23 = call nonnull align 8 dereferenceable(16) %"class.std::basic_istream"* @_ZNSirsERi(%"class.std::basic_istream"* nonnull align 8 dereferenceable(16) @_ZSt3cin, i32* nonnull align 4 dereferenceable(4) %2)
  %24 = load i32, i32* %1, align 4, !tbaa !5
  %25 = load i32, i32* %2, align 4
  %26 = icmp sgt i32 %24, 0
  br i1 %26, label %27, label %31

27:                                               ; preds = %22
  %28 = zext i32 %24 to i64
  %29 = zext i32 %24 to i64
  %30 = sub nsw i64 1, %28
  br label %35

31:                                               ; preds = %127, %22
  %32 = phi i32 [ 0, %22 ], [ %128, %127 ]
  %33 = sub nsw i32 %24, %32
  %34 = icmp sgt i32 %33, 0
  br i1 %34, label %132, label %149

35:                                               ; preds = %27, %127
  %36 = phi i64 [ 0, %27 ], [ %131, %127 ]
  %37 = phi i64 [ %29, %27 ], [ %130, %127 ]
  %38 = phi i64 [ %28, %27 ], [ %42, %127 ]
  %39 = phi i32 [ %24, %27 ], [ %43, %127 ]
  %40 = phi i32 [ 0, %27 ], [ %128, %127 ]
  %41 = add i64 %30, %36
  %42 = add nsw i64 %38, -1
  %43 = add nsw i32 %39, -1
  %44 = zext i32 %43 to i64
  %45 = getelementptr inbounds i32, i32* %11, i64 %44
  %46 = load i32, i32* %45, align 4, !tbaa !5
  %47 = icmp eq i32 %46, %25
  br i1 %47, label %48, label %127

48:                                               ; preds = %35
  %49 = add nsw i32 %40, 1
  %50 = sub nsw i32 %24, %49
  %51 = sext i32 %50 to i64
  %52 = icmp sgt i64 %37, %51
  br i1 %52, label %127, label %53

53:                                               ; preds = %48
  %54 = xor i32 %40, -1
  %55 = add i32 %24, %54
  %56 = sext i32 %55 to i64
  %57 = add i64 %41, %56
  %58 = icmp ult i64 %57, 8
  br i1 %58, label %118, label %59

59:                                               ; preds = %53
  %60 = and i64 %57, -8
  %61 = add i64 %42, %60
  %62 = add i64 %60, -8
  %63 = lshr exact i64 %62, 3
  %64 = add nuw nsw i64 %63, 1
  %65 = and i64 %64, 1
  %66 = icmp eq i64 %62, 0
  br i1 %66, label %100, label %67

67:                                               ; preds = %59
  %68 = and i64 %64, 4611686018427387902
  br label %69

69:                                               ; preds = %69, %67
  %70 = phi i64 [ 0, %67 ], [ %97, %69 ]
  %71 = phi i64 [ %68, %67 ], [ %98, %69 ]
  %72 = add i64 %42, %70
  %73 = add i64 %38, %70
  %74 = getelementptr inbounds i32, i32* %11, i64 %73
  %75 = bitcast i32* %74 to <4 x i32>*
  %76 = load <4 x i32>, <4 x i32>* %75, align 4, !tbaa !5
  %77 = getelementptr inbounds i32, i32* %74, i64 4
  %78 = bitcast i32* %77 to <4 x i32>*
  %79 = load <4 x i32>, <4 x i32>* %78, align 4, !tbaa !5
  %80 = getelementptr inbounds i32, i32* %11, i64 %72
  %81 = bitcast i32* %80 to <4 x i32>*
  store <4 x i32> %76, <4 x i32>* %81, align 4, !tbaa !5
  %82 = getelementptr inbounds i32, i32* %80, i64 4
  %83 = bitcast i32* %82 to <4 x i32>*
  store <4 x i32> %79, <4 x i32>* %83, align 4, !tbaa !5
  %84 = or i64 %70, 8
  %85 = add i64 %42, %84
  %86 = add i64 %38, %84
  %87 = getelementptr inbounds i32, i32* %11, i64 %86
  %88 = bitcast i32* %87 to <4 x i32>*
  %89 = load <4 x i32>, <4 x i32>* %88, align 4, !tbaa !5
  %90 = getelementptr inbounds i32, i32* %87, i64 4
  %91 = bitcast i32* %90 to <4 x i32>*
  %92 = load <4 x i32>, <4 x i32>* %91, align 4, !tbaa !5
  %93 = getelementptr inbounds i32, i32* %11, i64 %85
  %94 = bitcast i32* %93 to <4 x i32>*
  store <4 x i32> %89, <4 x i32>* %94, align 4, !tbaa !5
  %95 = getelementptr inbounds i32, i32* %93, i64 4
  %96 = bitcast i32* %95 to <4 x i32>*
  store <4 x i32> %92, <4 x i32>* %96, align 4, !tbaa !5
  %97 = add nuw i64 %70, 16
  %98 = add i64 %71, -2
  %99 = icmp eq i64 %98, 0
  br i1 %99, label %100, label %69, !llvm.loop !11

100:                                              ; preds = %69, %59
  %101 = phi i64 [ 0, %59 ], [ %97, %69 ]
  %102 = icmp eq i64 %65, 0
  br i1 %102, label %116, label %103

103:                                              ; preds = %100
  %104 = add i64 %42, %101
  %105 = add i64 %38, %101
  %106 = getelementptr inbounds i32, i32* %11, i64 %105
  %107 = bitcast i32* %106 to <4 x i32>*
  %108 = load <4 x i32>, <4 x i32>* %107, align 4, !tbaa !5
  %109 = getelementptr inbounds i32, i32* %106, i64 4
  %110 = bitcast i32* %109 to <4 x i32>*
  %111 = load <4 x i32>, <4 x i32>* %110, align 4, !tbaa !5
  %112 = getelementptr inbounds i32, i32* %11, i64 %104
  %113 = bitcast i32* %112 to <4 x i32>*
  store <4 x i32> %108, <4 x i32>* %113, align 4, !tbaa !5
  %114 = getelementptr inbounds i32, i32* %112, i64 4
  %115 = bitcast i32* %114 to <4 x i32>*
  store <4 x i32> %111, <4 x i32>* %115, align 4, !tbaa !5
  br label %116

116:                                              ; preds = %100, %103
  %117 = icmp eq i64 %57, %60
  br i1 %117, label %127, label %118

118:                                              ; preds = %53, %116
  %119 = phi i64 [ %42, %53 ], [ %61, %116 ]
  br label %120

120:                                              ; preds = %118, %120
  %121 = phi i64 [ %122, %120 ], [ %119, %118 ]
  %122 = add nsw i64 %121, 1
  %123 = getelementptr inbounds i32, i32* %11, i64 %122
  %124 = load i32, i32* %123, align 4, !tbaa !5
  %125 = getelementptr inbounds i32, i32* %11, i64 %121
  store i32 %124, i32* %125, align 4, !tbaa !5
  %126 = icmp eq i64 %122, %56
  br i1 %126, label %127, label %120, !llvm.loop !13

127:                                              ; preds = %120, %116, %48, %35
  %128 = phi i32 [ %40, %35 ], [ %49, %48 ], [ %49, %116 ], [ %49, %120 ]
  %129 = icmp sgt i64 %37, 1
  %130 = add nsw i64 %37, -1
  %131 = add i64 %36, 1
  br i1 %129, label %35, label %31, !llvm.loop !15

132:                                              ; preds = %31, %143
  %133 = phi i64 [ %144, %143 ], [ 0, %31 ]
  %134 = phi i32 [ %146, %143 ], [ %33, %31 ]
  %135 = add nsw i32 %134, -1
  %136 = zext i32 %135 to i64
  %137 = icmp eq i64 %133, %136
  %138 = getelementptr inbounds i32, i32* %11, i64 %133
  %139 = load i32, i32* %138, align 4, !tbaa !5
  %140 = call nonnull align 8 dereferenceable(8) %"class.std::basic_ostream"* @_ZNSolsEi(%"class.std::basic_ostream"* nonnull align 8 dereferenceable(8) @_ZSt4cout, i32 %139)
  br i1 %137, label %143, label %141

141:                                              ; preds = %132
  %142 = call nonnull align 8 dereferenceable(8) %"class.std::basic_ostream"* @_ZSt16__ostream_insertIcSt11char_traitsIcEERSt13basic_ostreamIT_T0_ES6_PKS3_l(%"class.std::basic_ostream"* nonnull align 8 dereferenceable(8) %140, i8* nonnull getelementptr inbounds ([2 x i8], [2 x i8]* @.str, i64 0, i64 0), i64 1)
  br label %143

143:                                              ; preds = %132, %141
  %144 = add nuw nsw i64 %133, 1
  %145 = load i32, i32* %1, align 4, !tbaa !5
  %146 = sub nsw i32 %145, %32
  %147 = sext i32 %146 to i64
  %148 = icmp slt i64 %144, %147
  br i1 %148, label %132, label %149, !llvm.loop !16

149:                                              ; preds = %143, %31
  call void @llvm.stackrestore(i8* %10)
  br label %150

150:                                              ; preds = %0, %149
  call void @llvm.lifetime.end.p0i8(i64 4, i8* nonnull %4) #7
  call void @llvm.lifetime.end.p0i8(i64 4, i8* nonnull %3) #7
  ret i32 0
}

; Function Attrs: argmemonly mustprogress nofree nosync nounwind willreturn
declare void @llvm.lifetime.start.p0i8(i64 immarg, i8* nocapture) #4

declare nonnull align 8 dereferenceable(16) %"class.std::basic_istream"* @_ZNSirsERi(%"class.std::basic_istream"* nonnull align 8 dereferenceable(16), i32* nonnull align 4 dereferenceable(4)) local_unnamed_addr #0

; Function Attrs: mustprogress nofree nosync nounwind willreturn
declare i8* @llvm.stacksave() #5

declare nonnull align 8 dereferenceable(8) %"class.std::basic_ostream"* @_ZNSolsEi(%"class.std::basic_ostream"* nonnull align 8 dereferenceable(8), i32) local_unnamed_addr #0

; Function Attrs: mustprogress nofree nosync nounwind willreturn
declare void @llvm.stackrestore(i8*) #5

; Function Attrs: argmemonly mustprogress nofree nosync nounwind willreturn
declare void @llvm.lifetime.end.p0i8(i64 immarg, i8* nocapture) #4

declare nonnull align 8 dereferenceable(8) %"class.std::basic_ostream"* @_ZSt16__ostream_insertIcSt11char_traitsIcEERSt13basic_ostreamIT_T0_ES6_PKS3_l(%"class.std::basic_ostream"* nonnull align 8 dereferenceable(8), i8*, i64) local_unnamed_addr #0

; Function Attrs: sspstrong uwtable
define internal void @_GLOBAL__sub_I_170.cpp() #6 section ".text.startup" {
  tail call void @_ZNSt8ios_base4InitC1Ev(%"class.std::ios_base::Init"* nonnull align 1 dereferenceable(1) @_ZStL8__ioinit)
  %1 = tail call i32 @__cxa_atexit(void (i8*)* bitcast (void (%"class.std::ios_base::Init"*)* @_ZNSt8ios_base4InitD1Ev to void (i8*)*), i8* getelementptr inbounds (%"class.std::ios_base::Init", %"class.std::ios_base::Init"* @_ZStL8__ioinit, i64 0, i32 0), i8* nonnull @__dso_handle) #7
  ret void
}


!llvm.module.flags = !{!0, !1, !2, !3}
!llvm.ident = !{!4}

!0 = !{i32 1, !"wchar_size", i32 4}
!1 = !{i32 7, !"PIC Level", i32 2}
!2 = !{i32 7, !"PIE Level", i32 2}
!3 = !{i32 7, !"uwtable", i32 1}
!4 = !{!"clang version 13.0.0"}
!5 = !{!6, !6, i64 0}
!6 = !{!"int", !7, i64 0}
!7 = !{!"omnipotent char", !8, i64 0}
!8 = !{!"Simple C++ TBAA"}
!9 = distinct !{!9, !10}
!10 = !{!"llvm.loop.mustprogress"}
!11 = distinct !{!11, !10, !12}
!12 = !{!"llvm.loop.isvectorized", i32 1}
!13 = distinct !{!13, !10, !14, !12}
!14 = !{!"llvm.loop.unroll.runtime.disable"}
!15 = distinct !{!15, !10}
!16 = distinct !{!16, !10}
